target datalayout = "e-m:e-p270:32:32-p271:32:32-p272:64:64-i64:64-i128:128-f80:128-n8:16:32:64-S128"
target triple = "x86_64-pc-linux-gnu"

%struct.anon = type { ptr, ptr, ptr, i32 }

@.str.34 = private unnamed_addr constant [6 x i8] c"%s.%s\00", align 1

; Function Attrs: inlinehint nounwind uwtable
define internal void @list_config_item(ptr noundef %0, ptr noundef %1, ptr noundef %2) #2 {
  %4 = alloca ptr, align 8
  %5 = alloca ptr, align 8
  %6 = alloca ptr, align 8
  store ptr %0, ptr %4, align 8, !tbaa !4
  store ptr %1, ptr %5, align 8, !tbaa !9
  store ptr %2, ptr %6, align 8, !tbaa !9
  %7 = load ptr, ptr %4, align 8, !tbaa !4
  %8 = load ptr, ptr %5, align 8, !tbaa !9
  %9 = load ptr, ptr %6, align 8, !tbaa !9
  %10 = call ptr (ptr, ...) @xstrfmt(ptr noundef @.str.34, ptr noundef %8, ptr noundef %9)
  %11 = call ptr @string_list_append_nodup(ptr noundef %7, ptr noundef %10)
  ret void
}

; Function Attrs: nounwind uwtable
define dso_local void @list_config_fsck_msg_ids(ptr noundef %0, ptr noundef %1) #0 {
  %3 = alloca ptr, align 8
  %4 = alloca ptr, align 8
  %5 = alloca i32, align 4
  store ptr %0, ptr %3, align 8, !tbaa !4
  store ptr %1, ptr %4, align 8, !tbaa !9
  call void @llvm.lifetime.start.p0(i64 4, ptr %5) #11
  call void @prepare_msg_ids()
  store i32 0, ptr %5, align 4, !tbaa !11
  br label %6

6:                                                ; preds = %17, %2
  %7 = load i32, ptr %5, align 4, !tbaa !11
  %8 = icmp slt i32 %7, 66
  br i1 %8, label %9, label %20

9:                                                ; preds = %6
  %10 = load ptr, ptr %3, align 8, !tbaa !4
  %11 = load ptr, ptr %4, align 8, !tbaa !9
  %12 = load i32, ptr %5, align 4, !tbaa !11
  %13 = sext i32 %12 to i64
  %14 = getelementptr inbounds [67 x %struct.anon], ptr @msg_id_info, i64 0, i64 %13
  %15 = getelementptr inbounds nuw %struct.anon, ptr %14, i32 0, i32 2
  %16 = load ptr, ptr %15, align 16, !tbaa !13
  call void @list_config_item(ptr noundef %10, ptr noundef %11, ptr noundef %16)
  br label %17

17:                                               ; preds = %9
  %18 = load i32, ptr %5, align 4, !tbaa !11
  %19 = add nsw i32 %18, 1
  store i32 %19, ptr %5, align 4, !tbaa !11
  br label %6, !llvm.loop !15

20:                                               ; preds = %6
  call void @llvm.lifetime.end.p0(i64 4, ptr %5) #11
  ret void
}