; Function Attrs: nounwind uwtable
define dso_local void @list_config_fsck_msg_ids(ptr noundef %0, ptr noundef %1) local_unnamed_addr #0 {
  tail call fastcc void @prepare_msg_ids()
  br label %3

3:                                                ; preds = %2, %3
  %indvars.iv = phi i64 [ 0, %2 ], [ %indvars.iv.next, %3 ]
  %4 = getelementptr inbounds nuw [67 x %struct.anon], ptr @msg_id_info, i64 0, i64 %indvars.iv, i32 2
  %5 = load ptr, ptr %4, align 16, !tbaa !4
  %6 = tail call ptr (ptr, ...) @xstrfmt(ptr noundef nonnull @.str.34, ptr noundef %1, ptr noundef %5) #16
  %7 = tail call ptr @string_list_append_nodup(ptr noundef %0, ptr noundef %6) #16
  %indvars.iv.next = add nuw nsw i64 %indvars.iv, 1
  %exitcond.not = icmp eq i64 %indvars.iv.next, 66
  br i1 %exitcond.not, label %8, label %3, !llvm.loop !11

8:                                                ; preds = %3
  ret void
}